target datalayout = "e-m:e-p270:32:32-p271:32:32-p272:64:64-i64:64-i128:128-f80:128-n8:16:32:64-S128"
target triple = "x86_64-pc-linux-gnu"

%struct.zskiplist = type { ptr, ptr, i64, i32 }
%struct.zskiplistNode = type { ptr, double, ptr, [0 x %struct.zskiplistLevel] }
%struct.zskiplistLevel = type { ptr, i64 }

@.str = private unnamed_addr constant [9 x i8] c"defrag.c\00", align 1
@.str.2 = private unnamed_addr constant [21 x i8] c"zsl->header!=oldnode\00", align 1
@.str.3 = private unnamed_addr constant [45 x i8] c"newnode->level[0].forward->backward==oldnode\00", align 1
@.str.4 = private unnamed_addr constant [19 x i8] c"zsl->tail==oldnode\00", align 1

; Function Attrs: nounwind uwtable
define dso_local void @zslUpdateNode(ptr noundef %0, ptr noundef %1, ptr noundef %2, ptr noundef %3) #0 {
  %5 = alloca ptr, align 8
  %6 = alloca ptr, align 8
  %7 = alloca ptr, align 8
  %8 = alloca ptr, align 8
  %9 = alloca i32, align 4
  store ptr %0, ptr %5, align 8, !tbaa !56
  store ptr %1, ptr %6, align 8, !tbaa !58
  store ptr %2, ptr %7, align 8, !tbaa !58
  store ptr %3, ptr %8, align 8, !tbaa !60
  call void @llvm.lifetime.start.p0(i64 4, ptr %9) #10
  store i32 0, ptr %9, align 4, !tbaa !44
  br label %10

10:                                               ; preds = %43, %4
  %11 = load i32, ptr %9, align 4, !tbaa !44
  %12 = load ptr, ptr %5, align 8, !tbaa !56
  %13 = getelementptr inbounds nuw %struct.zskiplist, ptr %12, i32 0, i32 3
  %14 = load i32, ptr %13, align 8, !tbaa !62
  %15 = icmp slt i32 %11, %14
  br i1 %15, label %16, label %46

16:                                               ; preds = %10
  %17 = load ptr, ptr %8, align 8, !tbaa !60
  %18 = load i32, ptr %9, align 4, !tbaa !44
  %19 = sext i32 %18 to i64
  %20 = getelementptr inbounds ptr, ptr %17, i64 %19
  %21 = load ptr, ptr %20, align 8, !tbaa !58
  %22 = getelementptr inbounds nuw %struct.zskiplistNode, ptr %21, i32 0, i32 3
  %23 = load i32, ptr %9, align 4, !tbaa !44
  %24 = sext i32 %23 to i64
  %25 = getelementptr inbounds [0 x %struct.zskiplistLevel], ptr %22, i64 0, i64 %24
  %26 = getelementptr inbounds nuw %struct.zskiplistLevel, ptr %25, i32 0, i32 0
  %27 = load ptr, ptr %26, align 8, !tbaa !64
  %28 = load ptr, ptr %6, align 8, !tbaa !58
  %29 = icmp eq ptr %27, %28
  br i1 %29, label %30, label %42

30:                                               ; preds = %16
  %31 = load ptr, ptr %7, align 8, !tbaa !58
  %32 = load ptr, ptr %8, align 8, !tbaa !60
  %33 = load i32, ptr %9, align 4, !tbaa !44
  %34 = sext i32 %33 to i64
  %35 = getelementptr inbounds ptr, ptr %32, i64 %34
  %36 = load ptr, ptr %35, align 8, !tbaa !58
  %37 = getelementptr inbounds nuw %struct.zskiplistNode, ptr %36, i32 0, i32 3
  %38 = load i32, ptr %9, align 4, !tbaa !44
  %39 = sext i32 %38 to i64
  %40 = getelementptr inbounds [0 x %struct.zskiplistLevel], ptr %37, i64 0, i64 %39
  %41 = getelementptr inbounds nuw %struct.zskiplistLevel, ptr %40, i32 0, i32 0
  store ptr %31, ptr %41, align 8, !tbaa !64
  br label %42

42:                                               ; preds = %30, %16
  br label %43

43:                                               ; preds = %42
  %44 = load i32, ptr %9, align 4, !tbaa !44
  %45 = add nsw i32 %44, 1
  store i32 %45, ptr %9, align 4, !tbaa !44
  br label %10, !llvm.loop !66

46:                                               ; preds = %10
  %47 = load ptr, ptr %5, align 8, !tbaa !56
  %48 = getelementptr inbounds nuw %struct.zskiplist, ptr %47, i32 0, i32 0
  %49 = load ptr, ptr %48, align 8, !tbaa !68
  %50 = load ptr, ptr %6, align 8, !tbaa !58
  %51 = icmp ne ptr %49, %50
  %52 = xor i1 %51, true
  %53 = xor i1 %52, true
  %54 = zext i1 %53 to i32
  %55 = sext i32 %54 to i64
  %56 = call i64 @llvm.expect.i64(i64 %55, i64 1)
  %57 = icmp ne i64 %56, 0
  br i1 %57, label %58, label %59

58:                                               ; preds = %46
  br label %61

59:                                               ; preds = %46
  call void @_serverAssert(ptr noundef @.str.2, ptr noundef @.str, i32 noundef 204)
  call void @abort() #11
  unreachable

60:                                               ; No predecessors!
  br label %61

61:                                               ; preds = %60, %58
  %62 = load ptr, ptr %7, align 8, !tbaa !58
  %63 = getelementptr inbounds nuw %struct.zskiplistNode, ptr %62, i32 0, i32 3
  %64 = getelementptr inbounds [0 x %struct.zskiplistLevel], ptr %63, i64 0, i64 0
  %65 = getelementptr inbounds nuw %struct.zskiplistLevel, ptr %64, i32 0, i32 0
  %66 = load ptr, ptr %65, align 8, !tbaa !64
  %67 = icmp ne ptr %66, null
  br i1 %67, label %68, label %95

68:                                               ; preds = %61
  %69 = load ptr, ptr %7, align 8, !tbaa !58
  %70 = getelementptr inbounds nuw %struct.zskiplistNode, ptr %69, i32 0, i32 3
  %71 = getelementptr inbounds [0 x %struct.zskiplistLevel], ptr %70, i64 0, i64 0
  %72 = getelementptr inbounds nuw %struct.zskiplistLevel, ptr %71, i32 0, i32 0
  %73 = load ptr, ptr %72, align 8, !tbaa !64
  %74 = getelementptr inbounds nuw %struct.zskiplistNode, ptr %73, i32 0, i32 2
  %75 = load ptr, ptr %74, align 8, !tbaa !58
  %76 = load ptr, ptr %6, align 8, !tbaa !58
  %77 = icmp eq ptr %75, %76
  %78 = xor i1 %77, true
  %79 = xor i1 %78, true
  %80 = zext i1 %79 to i32
  %81 = sext i32 %80 to i64
  %82 = call i64 @llvm.expect.i64(i64 %81, i64 1)
  %83 = icmp ne i64 %82, 0
  br i1 %83, label %84, label %85

84:                                               ; preds = %68
  br label %87

85:                                               ; preds = %68
  call void @_serverAssert(ptr noundef @.str.3, ptr noundef @.str, i32 noundef 206)
  call void @abort() #11
  unreachable

86:                                               ; No predecessors!
  br label %87

87:                                               ; preds = %86, %84
  %88 = load ptr, ptr %7, align 8, !tbaa !58
  %89 = load ptr, ptr %7, align 8, !tbaa !58
  %90 = getelementptr inbounds nuw %struct.zskiplistNode, ptr %89, i32 0, i32 3
  %91 = getelementptr inbounds [0 x %struct.zskiplistLevel], ptr %90, i64 0, i64 0
  %92 = getelementptr inbounds nuw %struct.zskiplistLevel, ptr %91, i32 0, i32 0
  %93 = load ptr, ptr %92, align 8, !tbaa !64
  %94 = getelementptr inbounds nuw %struct.zskiplistNode, ptr %93, i32 0, i32 2
  store ptr %88, ptr %94, align 8, !tbaa !58
  br label %114

95:                                               ; preds = %61
  %96 = load ptr, ptr %5, align 8, !tbaa !56
  %97 = getelementptr inbounds nuw %struct.zskiplist, ptr %96, i32 0, i32 1
  %98 = load ptr, ptr %97, align 8, !tbaa !69
  %99 = load ptr, ptr %6, align 8, !tbaa !58
  %100 = icmp eq ptr %98, %99
  %101 = xor i1 %100, true
  %102 = xor i1 %101, true
  %103 = zext i1 %102 to i32
  %104 = sext i32 %103 to i64
  %105 = call i64 @llvm.expect.i64(i64 %104, i64 1)
  %106 = icmp ne i64 %105, 0
  br i1 %106, label %107, label %108

107:                                              ; preds = %95
  br label %110

108:                                              ; preds = %95
  call void @_serverAssert(ptr noundef @.str.4, ptr noundef @.str, i32 noundef 209)
  call void @abort() #11
  unreachable

109:                                              ; No predecessors!
  br label %110

110:                                              ; preds = %109, %107
  %111 = load ptr, ptr %7, align 8, !tbaa !58
  %112 = load ptr, ptr %5, align 8, !tbaa !56
  %113 = getelementptr inbounds nuw %struct.zskiplist, ptr %112, i32 0, i32 1
  store ptr %111, ptr %113, align 8, !tbaa !69
  br label %114

114:                                              ; preds = %110, %87
  call void @llvm.lifetime.end.p0(i64 4, ptr %9) #10
  ret void
}