; Function Attrs: nounwind uwtable
define dso_local void @zslUpdateNode(ptr noundef captures(none) %0, ptr noundef readnone captures(address) %1, ptr noundef %2, ptr noundef readonly captures(none) %3) local_unnamed_addr #0 {
  %5 = getelementptr inbounds nuw i8, ptr %0, i64 24
  %6 = load i32, ptr %5, align 8, !tbaa !48
  %7 = icmp sgt i32 %6, 0
  br i1 %7, label %.lr.ph.preheader, label %._crit_edge

.lr.ph.preheader:                                 ; preds = %4
  %wide.trip.count = zext nneg i32 %6 to i64
  br label %.lr.ph

.lr.ph:                                           ; preds = %.lr.ph.preheader, %15
  %indvars.iv = phi i64 [ 0, %.lr.ph.preheader ], [ %indvars.iv.next, %15 ]
  %8 = getelementptr inbounds nuw ptr, ptr %3, i64 %indvars.iv
  %9 = load ptr, ptr %8, align 8, !tbaa !51
  %10 = getelementptr inbounds nuw i8, ptr %9, i64 24
  %11 = getelementptr inbounds nuw [0 x %struct.zskiplistLevel], ptr %10, i64 0, i64 %indvars.iv
  %12 = load ptr, ptr %11, align 8, !tbaa !52
  %13 = icmp eq ptr %12, %1
  br i1 %13, label %14, label %15

14:                                               ; preds = %.lr.ph
  store ptr %2, ptr %11, align 8, !tbaa !52
  br label %15

15:                                               ; preds = %.lr.ph, %14
  %indvars.iv.next = add nuw nsw i64 %indvars.iv, 1
  %exitcond.not = icmp eq i64 %indvars.iv.next, %wide.trip.count
  br i1 %exitcond.not, label %._crit_edge, label %.lr.ph, !llvm.loop !54

._crit_edge:                                      ; preds = %15, %4
  %16 = load ptr, ptr %0, align 8, !tbaa !56
  %.not = icmp eq ptr %16, %1
  br i1 %.not, label %17, label %18, !prof !57

17:                                               ; preds = %._crit_edge
  tail call void @_serverAssert(ptr noundef nonnull @.str.2, ptr noundef nonnull @.str, i32 noundef 204) #10
  tail call void @abort() #11
  unreachable

18:                                               ; preds = %._crit_edge
  %19 = getelementptr inbounds nuw i8, ptr %2, i64 24
  %20 = load ptr, ptr %19, align 8, !tbaa !52
  %.not23 = icmp eq ptr %20, null
  br i1 %.not23, label %27, label %21

21:                                               ; preds = %18
  %22 = getelementptr inbounds nuw i8, ptr %20, i64 16
  %23 = load ptr, ptr %22, align 8, !tbaa !51
  %24 = icmp eq ptr %23, %1
  br i1 %24, label %26, label %25, !prof !58

25:                                               ; preds = %21
  tail call void @_serverAssert(ptr noundef nonnull @.str.3, ptr noundef nonnull @.str, i32 noundef 206) #10
  tail call void @abort() #11
  unreachable

26:                                               ; preds = %21
  store ptr %2, ptr %22, align 8, !tbaa !51
  br label %33

27:                                               ; preds = %18
  %28 = getelementptr inbounds nuw i8, ptr %0, i64 8
  %29 = load ptr, ptr %28, align 8, !tbaa !59
  %30 = icmp eq ptr %29, %1
  br i1 %30, label %32, label %31, !prof !58

31:                                               ; preds = %27
  tail call void @_serverAssert(ptr noundef nonnull @.str.4, ptr noundef nonnull @.str, i32 noundef 209) #10
  tail call void @abort() #11
  unreachable

32:                                               ; preds = %27
  store ptr %2, ptr %28, align 8, !tbaa !59
  br label %33

33:                                               ; preds = %32, %26
  ret void
}